Certificate:
    Data:
        Version: 3 (0x2)
        Serial Number: 1 (0x1)
        Signature Algorithm: sha1WithRSAEncryption
        Issuer: C=IT, ST=Italy, L=Pavia, O=GEM Foundation, OU=Certification Authority, CN=Security Manager/emailAddress=security@openquake.org
        Validity
            Not Before: Aug  7 12:22:36 2012 GMT
            Not After : Aug  5 12:22:36 2022 GMT
        Subject: C=IT, ST=Italy, L=Pavia, O=GEM Foundation, OU=Certification Authority, CN=oq-platform-mn01/emailAddress=security@openquake.org
        Subject Public Key Info:
            Public Key Algorithm: rsaEncryption
                Public-Key: (1024 bit)
                Modulus:
                    00:ad:7e:e2:f4:26:9c:f9:b9:44:2d:25:6b:54:a1:
                    cc:2b:d5:a5:e7:b8:96:79:5f:91:e2:58:5b:b2:f4:
                    f8:43:1d:f3:9b:f6:eb:07:2d:13:6f:82:b3:60:22:
                    55:e3:d4:76:a5:86:01:a5:2c:b8:ad:49:72:5c:f2:
                    aa:25:1d:34:87:87:8e:e7:8e:08:d3:5c:19:81:6f:
                    0a:7d:f4:5a:0b:e5:c3:85:e5:7c:70:57:79:ad:77:
                    20:5c:45:a0:5a:45:da:37:6a:1a:1a:c9:9d:80:e7:
                    32:32:f4:83:56:5d:9e:e1:55:e0:9d:ee:cb:46:77:
                    36:50:f2:4f:e0:09:3a:40:37
                Exponent: 65537 (0x10001)
        X509v3 extensions:
            X509v3 Basic Constraints: 
                CA:FALSE
            X509v3 Key Usage: 
                Digital Signature, Non Repudiation, Key Encipherment, Data Encipherment
            X509v3 Extended Key Usage: 
                TLS Web Server Authentication
            X509v3 Subject Alternative Name: 
                DNS:oq-platform-mn.gem.lan, DNS:oq-platform-mn.birds.lan, IP Address:172.22.1.40
    Signature Algorithm: sha1WithRSAEncryption
        5a:cd:8c:e8:1d:76:d4:89:53:03:83:9c:c7:6b:53:da:ae:25:
        cc:7e:5a:b6:5a:ad:38:3a:d1:af:cc:f0:b3:23:54:1d:ff:61:
        fb:9d:63:36:16:b4:6e:5a:0a:6b:37:c6:3f:2c:90:92:a2:d0:
        71:77:fd:66:6e:a0:27:04:eb:a1:1a:c7:34:13:ae:d0:d4:46:
        50:88:a1:28:4f:ee:55:27:6c:25:56:57:c7:33:15:37:f6:af:
        df:0c:a1:cf:d9:96:dd:04:1d:c0:72:53:63:47:38:4f:51:c2:
        90:93:7b:98:f1:8d:da:04:f9:e0:41:31:b6:66:22:f0:ec:da:
        f0:cc
-----BEGIN CERTIFICATE-----
MIIDPjCCAqegAwIBAgIBATANBgkqhkiG9w0BAQUFADCBqjELMAkGA1UEBhMCSVQx
DjAMBgNVBAgTBUl0YWx5MQ4wDAYDVQQHEwVQYXZpYTEXMBUGA1UEChMOR0VNIEZv
dW5kYXRpb24xIDAeBgNVBAsTF0NlcnRpZmljYXRpb24gQXV0aG9yaXR5MRkwFwYD
VQQDExBTZWN1cml0eSBNYW5hZ2VyMSUwIwYJKoZIhvcNAQkBFhZzZWN1cml0eUBv
cGVucXVha2Uub3JnMB4XDTEyMDgwNzEyMjIzNloXDTIyMDgwNTEyMjIzNlowgaox
CzAJBgNVBAYTAklUMQ4wDAYDVQQIEwVJdGFseTEOMAwGA1UEBxMFUGF2aWExFzAV
BgNVBAoTDkdFTSBGb3VuZGF0aW9uMSAwHgYDVQQLExdDZXJ0aWZpY2F0aW9uIEF1
dGhvcml0eTEZMBcGA1UEAxMQb3EtcGxhdGZvcm0tbW4wMTElMCMGCSqGSIb3DQEJ
ARYWc2VjdXJpdHlAb3BlbnF1YWtlLm9yZzCBnzANBgkqhkiG9w0BAQEFAAOBjQAw
gYkCgYEArX7i9Cac+blELSVrVKHMK9Wl57iWeV+R4lhbsvT4Qx3zm/brBy0Tb4Kz
YCJV49R2pYYBpSy4rUlyXPKqJR00h4eO544I01wZgW8KffRaC+XDheV8cFd5rXcg
XEWgWkXaN2oaGsmdgOcyMvSDVl2e4VXgne7LRnc2UPJP4Ak6QDcCAwEAAaNyMHAw
CQYDVR0TBAIwADALBgNVHQ8EBAMCBPAwEwYDVR0lBAwwCgYIKwYBBQUHAwEwQQYD
VR0RBDowOIIWb3EtcGxhdGZvcm0tbW4uZ2VtLmxhboIYb3EtcGxhdGZvcm0tbW4u
YmlyZHMubGFuhwSsFgEoMA0GCSqGSIb3DQEBBQUAA4GBAFrNjOgddtSJUwODnMdr
U9quJcx+WrZarTg60a/M8LMjVB3/YfudYzYWtG5aCms3xj8skJKi0HF3/WZuoCcE
66EaxzQTrtDURlCIoShP7lUnbCVWV8czFTf2r98Moc/Zlt0EHcByU2NHOE9RwpCT
e5jxjdoE+eBBMbZmIvDs2vDM
-----END CERTIFICATE-----
